target datalayout = "e-m:e-p270:32:32-p271:32:32-p272:64:64-i64:64-i128:128-f80:128-n8:16:32:64-S128"
target triple = "x86_64-pc-linux-gnu"

%struct.symbol = type { ptr, i32, i32, ptr, ptr, i32, i32, ptr, i32, i32, ptr, i32, ptr, i32, i32, i32, ptr }

; Function Attrs: nounwind null_pointer_is_valid sspstrong uwtable
define hidden i32 @same_symbol(ptr noundef %0, ptr noundef %1) #2 {
  %3 = alloca i32, align 4
  %4 = alloca ptr, align 8
  %5 = alloca ptr, align 8
  %6 = alloca i32, align 4
  %7 = alloca i32, align 4
  store ptr %0, ptr %4, align 8
  store ptr %1, ptr %5, align 8
  call void @llvm.lifetime.start.p0(i64 4, ptr %6) #18
  %8 = load ptr, ptr %4, align 8
  %9 = load ptr, ptr %5, align 8
  %10 = icmp eq ptr %8, %9
  br i1 %10, label %11, label %12

11:                                               ; preds = %2
  store i32 1, ptr %3, align 4
  store i32 1, ptr %7, align 4
  br label %62

12:                                               ; preds = %2
  %13 = load ptr, ptr %4, align 8
  %14 = getelementptr inbounds nuw %struct.symbol, ptr %13, i32 0, i32 2
  %15 = load i32, ptr %14, align 4
  %16 = icmp ne i32 %15, 2
  br i1 %16, label %17, label %18

17:                                               ; preds = %12
  store i32 0, ptr %3, align 4
  store i32 1, ptr %7, align 4
  br label %62

18:                                               ; preds = %12
  %19 = load ptr, ptr %5, align 8
  %20 = getelementptr inbounds nuw %struct.symbol, ptr %19, i32 0, i32 2
  %21 = load i32, ptr %20, align 4
  %22 = icmp ne i32 %21, 2
  br i1 %22, label %23, label %24

23:                                               ; preds = %18
  store i32 0, ptr %3, align 4
  store i32 1, ptr %7, align 4
  br label %62

24:                                               ; preds = %18
  %25 = load ptr, ptr %4, align 8
  %26 = getelementptr inbounds nuw %struct.symbol, ptr %25, i32 0, i32 15
  %27 = load i32, ptr %26, align 8
  %28 = load ptr, ptr %5, align 8
  %29 = getelementptr inbounds nuw %struct.symbol, ptr %28, i32 0, i32 15
  %30 = load i32, ptr %29, align 8
  %31 = icmp ne i32 %27, %30
  br i1 %31, label %32, label %33

32:                                               ; preds = %24
  store i32 0, ptr %3, align 4
  store i32 1, ptr %7, align 4
  br label %62

33:                                               ; preds = %24
  store i32 0, ptr %6, align 4
  br label %34

34:                                               ; preds = %58, %33
  %35 = load i32, ptr %6, align 4
  %36 = load ptr, ptr %4, align 8
  %37 = getelementptr inbounds nuw %struct.symbol, ptr %36, i32 0, i32 15
  %38 = load i32, ptr %37, align 8
  %39 = icmp slt i32 %35, %38
  br i1 %39, label %40, label %61

40:                                               ; preds = %34
  %41 = load ptr, ptr %4, align 8
  %42 = getelementptr inbounds nuw %struct.symbol, ptr %41, i32 0, i32 16
  %43 = load ptr, ptr %42, align 8
  %44 = load i32, ptr %6, align 4
  %45 = sext i32 %44 to i64
  %46 = getelementptr ptr, ptr %43, i64 %45
  %47 = load ptr, ptr %46, align 8
  %48 = load ptr, ptr %5, align 8
  %49 = getelementptr inbounds nuw %struct.symbol, ptr %48, i32 0, i32 16
  %50 = load ptr, ptr %49, align 8
  %51 = load i32, ptr %6, align 4
  %52 = sext i32 %51 to i64
  %53 = getelementptr ptr, ptr %50, i64 %52
  %54 = load ptr, ptr %53, align 8
  %55 = icmp ne ptr %47, %54
  br i1 %55, label %56, label %57

56:                                               ; preds = %40
  store i32 0, ptr %3, align 4
  store i32 1, ptr %7, align 4
  br label %62

57:                                               ; preds = %40
  br label %58

58:                                               ; preds = %57
  %59 = load i32, ptr %6, align 4
  %60 = add i32 %59, 1
  store i32 %60, ptr %6, align 4
  br label %34, !llvm.loop !51

61:                                               ; preds = %34
  store i32 1, ptr %3, align 4
  store i32 1, ptr %7, align 4
  br label %62

62:                                               ; preds = %61, %56, %32, %23, %17, %11
  call void @llvm.lifetime.end.p0(i64 4, ptr %6) #18
  %63 = load i32, ptr %3, align 4
  ret i32 %63
}