; Function Attrs: nofree norecurse nosync nounwind null_pointer_is_valid sspstrong memory(read, inaccessiblemem: none) uwtable
define hidden range(i32 0, 2) i32 @same_symbol(ptr noundef readonly captures(address) %0, ptr noundef readonly captures(address) %1) local_unnamed_addr #8 {
  %3 = icmp eq ptr %0, %1
  br i1 %3, label %.loopexit, label %4

4:                                                ; preds = %2
  %5 = getelementptr inbounds nuw i8, ptr %0, i64 12
  %6 = load i32, ptr %5, align 4
  %.not = icmp eq i32 %6, 2
  br i1 %.not, label %7, label %.loopexit

7:                                                ; preds = %4
  %8 = getelementptr inbounds nuw i8, ptr %1, i64 12
  %9 = load i32, ptr %8, align 4
  %.not16 = icmp eq i32 %9, 2
  br i1 %.not16, label %10, label %.loopexit

10:                                               ; preds = %7
  %11 = getelementptr inbounds nuw i8, ptr %0, i64 88
  %12 = load i32, ptr %11, align 8
  %13 = getelementptr inbounds nuw i8, ptr %1, i64 88
  %14 = load i32, ptr %13, align 8
  %.not17 = icmp eq i32 %12, %14
  br i1 %.not17, label %.preheader, label %.loopexit

.preheader:                                       ; preds = %10
  %15 = icmp sgt i32 %12, 0
  br i1 %15, label %.lr.ph, label %.loopexit

.lr.ph:                                           ; preds = %.preheader
  %16 = getelementptr inbounds nuw i8, ptr %0, i64 96
  %17 = load ptr, ptr %16, align 8
  %18 = getelementptr inbounds nuw i8, ptr %1, i64 96
  %19 = load ptr, ptr %18, align 8
  %wide.trip.count = zext nneg i32 %12 to i64
  br label %21

20:                                               ; preds = %21
  %indvars.iv.next = add nuw nsw i64 %indvars.iv, 1
  %exitcond.not = icmp eq i64 %indvars.iv.next, %wide.trip.count
  br i1 %exitcond.not, label %.loopexit, label %21, !llvm.loop !61

21:                                               ; preds = %.lr.ph, %20
  %indvars.iv = phi i64 [ 0, %.lr.ph ], [ %indvars.iv.next, %20 ]
  %22 = getelementptr ptr, ptr %17, i64 %indvars.iv
  %23 = load ptr, ptr %22, align 8
  %24 = getelementptr ptr, ptr %19, i64 %indvars.iv
  %25 = load ptr, ptr %24, align 8
  %.not18 = icmp eq ptr %23, %25
  br i1 %.not18, label %20, label %.loopexit

.loopexit:                                        ; preds = %21, %20, %.preheader, %10, %7, %4, %2
  %.013 = phi i32 [ 1, %2 ], [ 0, %4 ], [ 0, %7 ], [ 0, %10 ], [ 1, %.preheader ], [ 0, %21 ], [ 1, %20 ]
  ret i32 %.013
}